; Function Attrs: mustprogress nounwind uwtable
define hidden noundef i32 @_ZN22ImmutableOopMapBuilder8fill_mapEP19ImmutableOopMapPairPK6OopMapiPK18ImmutableOopMapSet(ptr nocapture noundef nonnull readonly align 8 dereferenceable(56) %0, ptr nocapture noundef writeonly %1, ptr noundef %2, i32 noundef %3, ptr nocapture noundef readnone %4) local_unnamed_addr #2 align 2 {
  %6 = load i32, ptr %2, align 8
  store i32 %6, ptr %1, align 4
  %7 = getelementptr inbounds i8, ptr %1, i64 4
  store i32 %3, ptr %7, align 4
  %8 = getelementptr inbounds i8, ptr %0, i64 48
  %9 = load ptr, ptr %8, align 8
  %10 = getelementptr inbounds i8, ptr %9, i64 8
  %11 = load i32, ptr %9, align 4
  %12 = sext i32 %11 to i64
  %13 = shl nsw i64 %12, 3
  %14 = getelementptr inbounds i8, ptr %10, i64 %13
  %15 = sext i32 %3 to i64
  %16 = getelementptr inbounds i8, ptr %14, i64 %15
  tail call void @_ZN15ImmutableOopMapC2EPK6OopMap(ptr noundef nonnull align 4 dereferenceable(9) %16, ptr noundef nonnull %2)
  %17 = getelementptr inbounds i8, ptr %2, i64 24
  %18 = load ptr, ptr %17, align 8
  %19 = getelementptr inbounds i8, ptr %18, i64 8
  %20 = load i32, ptr %19, align 8
  %21 = add i32 %20, 19
  %22 = and i32 %21, -8
  ret i32 %22
}